Certificate:
    Data:
        Version: 3 (0x2)
        Serial Number:
            73:bd:f4:41:7f:60:1e:50:c6:a6:0d:e5:c8:45:27:4b:72:d6:81:b6
        Signature Algorithm: sha256WithRSAEncryption
        Issuer: C=FR, CN=Homeware - Root CA - 2025, L=Caen, ST=Calvados, O=Local, OU=PKI
        Validity
            Not Before: Jan  1 00:00:00 2025 GMT
            Not After : Dec 31 23:59:59 2025 GMT
        Subject: C=FR, CN=Homeware - Localhost - Server - 2025, L=Caen, ST=Calvados, O=Local, OU=PKI
        Subject Public Key Info:
            Public Key Algorithm: rsaEncryption
                Public-Key: (4096 bit)
                Modulus:
                    00:89:42:0c:6d:e9:ac:62:5a:b8:61:3f:bb:f2:bb:
                    60:b2:6b:82:10:d4:6d:17:ac:7b:ea:16:1a:b8:44:
                    ca:d5:71:fb:14:a6:65:14:fc:b3:a2:0f:54:fa:a2:
                    a7:9a:d4:14:92:99:88:aa:20:8a:41:52:f4:05:90:
                    86:b2:26:32:f7:89:0d:7b:0d:2c:c2:e3:82:6e:58:
                    d7:e4:70:ad:04:5f:99:15:14:35:92:c6:49:fb:81:
                    33:36:0e:55:0b:e8:ea:51:2d:27:e1:1d:4f:cf:b2:
                    5f:3e:18:31:50:0d:51:8b:20:d6:79:d9:2a:6a:ff:
                    38:22:7e:88:be:61:da:37:cb:00:9a:b8:e6:aa:dc:
                    89:4a:f1:ce:a6:32:66:b1:e6:ab:3d:0f:60:d9:94:
                    62:fb:ad:c5:fd:b8:ac:d0:f2:52:73:57:72:c6:03:
                    8a:e3:c4:e7:a4:fa:33:86:58:b2:b7:27:86:1d:8e:
                    32:2c:1c:d4:6a:38:27:55:c9:11:c7:1b:53:f5:4c:
                    0e:46:4c:10:e5:e7:a0:e1:43:32:77:58:4f:71:31:
                    0c:8e:3a:ea:6e:ad:a9:df:49:60:fa:e3:b7:45:22:
                    90:65:48:af:e7:47:b3:8e:1c:75:c7:9d:45:37:1c:
                    52:fc:f9:c0:c8:ac:84:95:30:0b:f7:43:b3:14:92:
                    89:ca:88:95:f4:8e:27:d1:1c:44:3c:86:09:ff:7b:
                    ed:75:1c:77:f9:2a:58:b5:91:1f:77:87:e9:33:c4:
                    7c:c6:e9:40:b8:cf:40:c3:fc:94:12:da:cf:1a:8d:
                    be:ac:e4:95:ee:cf:4f:9a:77:9f:6d:04:f4:fa:7c:
                    9d:72:5b:e4:a4:d5:20:48:0d:d3:1d:4c:fc:c2:a5:
                    3d:a8:a2:a1:a1:94:95:f1:2e:b2:c8:01:10:70:e1:
                    5f:21:5e:41:91:04:f3:47:cc:16:f4:e1:09:3d:27:
                    18:3e:2b:40:e5:06:77:39:c1:27:0f:43:89:cb:9f:
                    96:50:c5:07:61:3d:fc:f0:63:ed:50:b1:dc:98:57:
                    70:90:90:7e:16:17:e7:67:29:f7:e8:f0:a9:6c:58:
                    47:31:69:13:bc:f6:0c:6a:3e:85:41:8a:6f:05:27:
                    c6:4b:18:bd:95:3c:b6:c2:cc:be:a7:0b:32:3b:90:
                    10:9a:83:40:54:57:54:f5:2d:61:0c:fe:24:05:4e:
                    18:04:50:74:6f:32:0b:9a:f2:59:b2:70:51:5b:bc:
                    f0:6b:81:e7:df:3b:d0:fb:f9:37:d1:9e:0b:59:a1:
                    b7:8b:14:a8:ed:a0:3a:02:da:14:94:af:2f:00:32:
                    98:32:af:24:db:44:1c:8d:1c:16:2b:0c:4a:04:45:
                    ff:d7:31
                Exponent: 65537 (0x10001)
        X509v3 extensions:
            X509v3 Basic Constraints: 
                CA:FALSE
            X509v3 Extended Key Usage: critical
                TLS Web Server Authentication
            X509v3 Key Usage: critical
                Digital Signature, Key Encipherment
            X509v3 Subject Key Identifier: 
                6D:42:70:BB:57:DB:83:BF:67:E2:15:D8:2C:4B:EB:12:2A:91:19:C7
            X509v3 Subject Alternative Name: 
                DNS:localhost
            X509v3 Authority Key Identifier: 
                A0:2D:24:D5:4E:9E:E2:56:0A:03:B0:79:38:B1:21:43:D5:46:69:F2
    Signature Algorithm: sha256WithRSAEncryption
    Signature Value:
        c5:61:65:23:68:92:a3:1b:ca:bd:86:e7:21:e6:5b:cb:67:e9:
        8b:04:06:ba:52:7c:3e:ac:e3:f8:10:50:0b:66:58:42:16:df:
        fc:2e:41:4b:d8:61:7e:03:80:37:99:7d:92:38:ff:ce:3a:80:
        ce:ec:b1:0e:bb:eb:8c:67:0e:87:91:b5:46:27:30:b4:e1:29:
        7d:4a:22:e7:70:a9:02:81:b4:0e:2c:f1:ce:9c:a2:23:7a:25:
        1c:50:9e:d5:61:a6:f0:59:92:88:ed:d5:66:d6:b8:a1:33:04:
        5b:b1:1a:d8:57:82:0a:c7:9e:c6:50:da:aa:62:6f:c1:1f:00:
        f9:04:c0:17:6b:90:14:fa:a9:db:e0:1a:f6:58:21:09:0e:3d:
        1b:b2:44:85:4f:5e:8d:7d:c1:74:88:1d:33:b7:1a:df:59:be:
        2c:e6:8d:d4:67:39:42:49:cc:a6:ca:9e:bc:2c:ba:1d:5e:27:
        db:f8:4b:6e:8c:3d:cd:e6:be:d7:2b:10:f0:f3:fe:d2:da:cb:
        fc:19:7d:15:43:5d:b7:ed:ef:87:ea:d2:bb:46:44:e5:c7:f2:
        36:1c:a2:38:29:d5:3f:62:53:a2:8b:9a:3c:f7:96:98:f3:93:
        00:97:06:68:71:33:78:36:ac:8e:87:ec:13:ec:a3:ab:9b:cf:
        0e:d5:34:79:df:69:60:f6:f5:93:b2:18:c2:e1:16:ea:80:be:
        2a:00:a6:1d:da:9c:99:3e:70:a6:6d:77:93:89:df:db:a1:5e:
        ad:2f:a3:4f:15:bd:7c:cd:de:81:e3:17:d6:db:c9:6a:1b:10:
        39:76:ee:0e:64:73:f3:bd:27:13:2e:5b:aa:ff:0b:37:53:ab:
        4a:c0:e7:ce:fe:e8:5d:75:4c:e8:5d:d3:21:a8:91:41:6e:2b:
        14:1f:59:10:a6:c7:df:f7:5e:ba:ef:d2:10:aa:ae:b7:e4:9f:
        66:bc:cf:25:79:47:01:b2:4c:35:29:aa:14:bb:f9:ab:93:45:
        b4:7e:ad:97:3b:82:6d:de:95:0a:b0:6b:17:b3:71:4c:2a:ca:
        b2:a6:63:25:8e:fb:23:b7:cb:08:4d:bf:d4:5d:a8:ee:ba:7a:
        8e:f9:24:ac:74:24:6d:6a:25:0d:f3:59:9e:3b:de:0c:3f:e4:
        ff:a7:fd:0d:0f:1d:53:22:df:a5:57:cb:3b:1b:67:5f:ff:34:
        18:b5:fb:12:c7:4e:a3:f3:67:36:16:ac:d5:c5:af:97:9a:a5:
        61:cb:00:84:2f:38:e2:ca:7a:6a:79:db:e1:45:99:10:23:c5:
        d3:a9:26:69:f9:e8:96:2d:8f:b2:a9:04:3a:b0:a4:5b:e6:85:
        c9:78:f7:26:b4:ee:b1:9a
-----BEGIN CERTIFICATE-----
MIIGCDCCA/CgAwIBAgIUc730QX9gHlDGpg3lyEUnS3LWgbYwDQYJKoZIhvcNAQEL
BQAwcTELMAkGA1UEBhMCRlIxIjAgBgNVBAMMGUhvbWV3YXJlIC0gUm9vdCBDQSAt
IDIwMjUxDTALBgNVBAcMBENhZW4xETAPBgNVBAgMCENhbHZhZG9zMQ4wDAYDVQQK
DAVMb2NhbDEMMAoGA1UECwwDUEtJMB4XDTI1MDEwMTAwMDAwMFoXDTI1MTIzMTIz
NTk1OVowfDELMAkGA1UEBhMCRlIxLTArBgNVBAMMJEhvbWV3YXJlIC0gTG9jYWxo
b3N0IC0gU2VydmVyIC0gMjAyNTENMAsGA1UEBwwEQ2FlbjERMA8GA1UECAwIQ2Fs
dmFkb3MxDjAMBgNVBAoMBUxvY2FsMQwwCgYDVQQLDANQS0kwggIiMA0GCSqGSIb3
DQEBAQUAA4ICDwAwggIKAoICAQCJQgxt6axiWrhhP7vyu2Cya4IQ1G0XrHvqFhq4
RMrVcfsUpmUU/LOiD1T6oqea1BSSmYiqIIpBUvQFkIayJjL3iQ17DSzC44JuWNfk
cK0EX5kVFDWSxkn7gTM2DlUL6OpRLSfhHU/Psl8+GDFQDVGLINZ52Spq/zgifoi+
Ydo3ywCauOaq3IlK8c6mMmax5qs9D2DZlGL7rcX9uKzQ8lJzV3LGA4rjxOek+jOG
WLK3J4YdjjIsHNRqOCdVyRHHG1P1TA5GTBDl56DhQzJ3WE9xMQyOOupuranfSWD6
47dFIpBlSK/nR7OOHHXHnUU3HFL8+cDIrISVMAv3Q7MUkonKiJX0jifRHEQ8hgn/
e+11HHf5Kli1kR93h+kzxHzG6UC4z0DD/JQS2s8ajb6s5JXuz0+ad59tBPT6fJ1y
W+Sk1SBIDdMdTPzCpT2ooqGhlJXxLrLIARBw4V8hXkGRBPNHzBb04Qk9Jxg+K0Dl
Bnc5wScPQ4nLn5ZQxQdhPfzwY+1QsdyYV3CQkH4WF+dnKffo8KlsWEcxaRO89gxq
PoVBim8FJ8ZLGL2VPLbCzL6nCzI7kBCag0BUV1T1LWEM/iQFThgEUHRvMgua8lmy
cFFbvPBrgeffO9D7+TfRngtZobeLFKjtoDoC2hSUry8AMpgyryTbRByNHBYrDEoE
Rf/XMQIDAQABo4GMMIGJMAkGA1UdEwQCMAAwFgYDVR0lAQH/BAwwCgYIKwYBBQUH
AwEwDgYDVR0PAQH/BAQDAgWgMB0GA1UdDgQWBBRtQnC7V9uDv2fiFdgsS+sSKpEZ
xzAUBgNVHREEDTALgglsb2NhbGhvc3QwHwYDVR0jBBgwFoAUoC0k1U6e4lYKA7B5
OLEhQ9VGafIwDQYJKoZIhvcNAQELBQADggIBAMVhZSNokqMbyr2G5yHmW8tn6YsE
BrpSfD6s4/gQUAtmWEIW3/wuQUvYYX4DgDeZfZI4/846gM7ssQ6764xnDoeRtUYn
MLThKX1KIudwqQKBtA4s8c6coiN6JRxQntVhpvBZkojt1WbWuKEzBFuxGthXggrH
nsZQ2qpib8EfAPkEwBdrkBT6qdvgGvZYIQkOPRuyRIVPXo19wXSIHTO3Gt9Zvizm
jdRnOUJJzKbKnrwsuh1eJ9v4S26MPc3mvtcrEPDz/tLay/wZfRVDXbft74fq0rtG
ROXH8jYcojgp1T9iU6KLmjz3lpjzkwCXBmhxM3g2rI6H7BPso6ubzw7VNHnfaWD2
9ZOyGMLhFuqAvioAph3anJk+cKZtd5OJ39uhXq0vo08VvXzN3oHjF9bbyWobEDl2
7g5kc/O9JxMuW6r/CzdTq0rA587+6F11TOhd0yGokUFuKxQfWRCmx9/3Xrrv0hCq
rrfkn2a8zyV5RwGyTDUpqhS7+auTRbR+rZc7gm3elQqwaxezcUwqyrKmYyWO+yO3
ywhNv9RdqO66eo75JKx0JG1qJQ3zWZ473gw/5P+n/Q0PHVMi36VXyzsbZ1//NBi1
+xLHTqPzZzYWrNXFr5eapWHLAIQvOOLKemp52+FFmRAjxdOpJmn56JYtj7KpBDqw
pFvmhcl49ya07rGa
-----END CERTIFICATE-----
